target datalayout = "e-m:e-p270:32:32-p271:32:32-p272:64:64-i64:64-i128:128-f80:128-n8:16:32:64-S128"
target triple = "x86_64-pc-linux-gnu"

%struct._zend_phar_globals = type { %struct._zend_array, %struct._zend_array, ptr, %struct._zend_array, i32, i32, ptr, i32, i32, i32, i32, i8, i8, i8, i32, i32, i32, i32, ptr, ptr, ptr, ptr, ptr, ptr, ptr, ptr, ptr, ptr, ptr, ptr, ptr, ptr, ptr, ptr, ptr, ptr, ptr, ptr, ptr, ptr, ptr, i32, i32, ptr, i32, ptr, i32, ptr, i32, ptr, %struct._zend_array }
%struct._zend_array = type { %struct._zend_refcounted_h, %union.anon.4, i32, %union.anon.6, i32, i32, i32, i32, i64, ptr }
%struct._zend_refcounted_h = type { i32, %union.anon.3 }
%union.anon.3 = type { i32 }
%union.anon.4 = type { i32 }
%union.anon.6 = type { ptr }
%struct._zval_struct = type { %union._zend_value, %union.anon, %union.anon.2 }
%union._zend_value = type { i64 }
%union.anon = type { i32 }
%union.anon.2 = type { i32 }
%struct._phar_entry_info = type { i32, i32, i32, i32, i32, i32, %struct._phar_metadata_tracker, i32, ptr, i32, i64, i64, i64, ptr, ptr, i32, ptr, ptr, ptr, i8, i32, i16, i16 }
%struct._phar_metadata_tracker = type { %struct._zval_struct, ptr }
%struct._phar_archive_data = type { ptr, i32, ptr, i32, ptr, i32, [12 x i8], i64, i64, %struct._zend_array, %struct._zend_array, %struct._zend_array, i32, i32, i32, ptr, ptr, i32, i32, i32, ptr, %struct._phar_metadata_tracker, i32, i16 }
%struct._phar_entry_fp = type { ptr, ptr, ptr }
%struct._phar_entry_fp_info = type { i32, i64 }

@.str = private unnamed_addr constant [3 x i8] c"rb\00", align 1
@phar_globals = external global %struct._zend_phar_globals, align 8

; Function Attrs: nounwind uwtable
define internal void @phar_set_pharfp(ptr noundef %0, ptr noundef %1) #0 {
  %3 = alloca ptr, align 8
  %4 = alloca ptr, align 8
  store ptr %0, ptr %3, align 8
  store ptr %1, ptr %4, align 8
  %5 = load ptr, ptr %3, align 8
  %6 = getelementptr inbounds %struct._phar_archive_data, ptr %5, i32 0, i32 23
  %7 = load i16, ptr %6, align 4
  %8 = lshr i16 %7, 8
  %9 = and i16 %8, 1
  %10 = zext i16 %9 to i32
  %11 = icmp ne i32 %10, 0
  br i1 %11, label %16, label %12

12:                                               ; preds = %2
  %13 = load ptr, ptr %4, align 8
  %14 = load ptr, ptr %3, align 8
  %15 = getelementptr inbounds %struct._phar_archive_data, ptr %14, i32 0, i32 15
  store ptr %13, ptr %15, align 8
  br label %25

16:                                               ; preds = %2
  %17 = load ptr, ptr %4, align 8
  %18 = load ptr, ptr getelementptr inbounds (%struct._zend_phar_globals, ptr @phar_globals, i32 0, i32 2), align 8
  %19 = load ptr, ptr %3, align 8
  %20 = getelementptr inbounds %struct._phar_archive_data, ptr %19, i32 0, i32 22
  %21 = load i32, ptr %20, align 8
  %22 = zext i32 %21 to i64
  %23 = getelementptr inbounds %struct._phar_entry_fp, ptr %18, i64 %22
  %24 = getelementptr inbounds %struct._phar_entry_fp, ptr %23, i32 0, i32 0
  store ptr %17, ptr %24, align 8
  br label %25

25:                                               ; preds = %16, %12
  ret void
}

; Function Attrs: nounwind uwtable
define internal ptr @phar_get_pharfp(ptr noundef %0) #0 {
  %2 = alloca ptr, align 8
  %3 = alloca ptr, align 8
  store ptr %0, ptr %3, align 8
  %4 = load ptr, ptr %3, align 8
  %5 = getelementptr inbounds %struct._phar_archive_data, ptr %4, i32 0, i32 23
  %6 = load i16, ptr %5, align 4
  %7 = lshr i16 %6, 8
  %8 = and i16 %7, 1
  %9 = zext i16 %8 to i32
  %10 = icmp ne i32 %9, 0
  br i1 %10, label %15, label %11

11:                                               ; preds = %1
  %12 = load ptr, ptr %3, align 8
  %13 = getelementptr inbounds %struct._phar_archive_data, ptr %12, i32 0, i32 15
  %14 = load ptr, ptr %13, align 8
  store ptr %14, ptr %2, align 8
  br label %24

15:                                               ; preds = %1
  %16 = load ptr, ptr getelementptr inbounds (%struct._zend_phar_globals, ptr @phar_globals, i32 0, i32 2), align 8
  %17 = load ptr, ptr %3, align 8
  %18 = getelementptr inbounds %struct._phar_archive_data, ptr %17, i32 0, i32 22
  %19 = load i32, ptr %18, align 8
  %20 = zext i32 %19 to i64
  %21 = getelementptr inbounds %struct._phar_entry_fp, ptr %16, i64 %20
  %22 = getelementptr inbounds %struct._phar_entry_fp, ptr %21, i32 0, i32 0
  %23 = load ptr, ptr %22, align 8
  store ptr %23, ptr %2, align 8
  br label %24

24:                                               ; preds = %15, %11
  %25 = load ptr, ptr %2, align 8
  ret ptr %25
}

; Function Attrs: nounwind uwtable
define internal ptr @phar_get_entrypufp(ptr noundef %0) #0 {
  %2 = alloca ptr, align 8
  %3 = alloca ptr, align 8
  store ptr %0, ptr %3, align 8
  %4 = load ptr, ptr %3, align 8
  %5 = getelementptr inbounds %struct._phar_entry_info, ptr %4, i32 0, i32 22
  %6 = load i16, ptr %5, align 2
  %7 = lshr i16 %6, 8
  %8 = and i16 %7, 1
  %9 = zext i16 %8 to i32
  %10 = icmp ne i32 %9, 0
  br i1 %10, label %17, label %11

11:                                               ; preds = %1
  %12 = load ptr, ptr %3, align 8
  %13 = getelementptr inbounds %struct._phar_entry_info, ptr %12, i32 0, i32 17
  %14 = load ptr, ptr %13, align 8
  %15 = getelementptr inbounds %struct._phar_archive_data, ptr %14, i32 0, i32 16
  %16 = load ptr, ptr %15, align 8
  store ptr %16, ptr %2, align 8
  br label %28

17:                                               ; preds = %1
  %18 = load ptr, ptr getelementptr inbounds (%struct._zend_phar_globals, ptr @phar_globals, i32 0, i32 2), align 8
  %19 = load ptr, ptr %3, align 8
  %20 = getelementptr inbounds %struct._phar_entry_info, ptr %19, i32 0, i32 17
  %21 = load ptr, ptr %20, align 8
  %22 = getelementptr inbounds %struct._phar_archive_data, ptr %21, i32 0, i32 22
  %23 = load i32, ptr %22, align 8
  %24 = zext i32 %23 to i64
  %25 = getelementptr inbounds %struct._phar_entry_fp, ptr %18, i64 %24
  %26 = getelementptr inbounds %struct._phar_entry_fp, ptr %25, i32 0, i32 1
  %27 = load ptr, ptr %26, align 8
  store ptr %27, ptr %2, align 8
  br label %28

28:                                               ; preds = %17, %11
  %29 = load ptr, ptr %2, align 8
  ret ptr %29
}

; Function Attrs: nounwind uwtable
define hidden i32 @phar_open_archive_fp(ptr noundef %0) #0 {
  %2 = alloca i32, align 4
  %3 = alloca ptr, align 8
  store ptr %0, ptr %3, align 8
  %4 = load ptr, ptr %3, align 8
  %5 = call ptr @phar_get_pharfp(ptr noundef %4)
  %6 = icmp ne ptr %5, null
  br i1 %6, label %7, label %8

7:                                                ; preds = %1
  store i32 0, ptr %2, align 4
  br label %26

8:                                                ; preds = %1
  %9 = load ptr, ptr %3, align 8
  %10 = getelementptr inbounds %struct._phar_archive_data, ptr %9, i32 0, i32 0
  %11 = load ptr, ptr %10, align 8
  %12 = call i32 @php_check_open_basedir(ptr noundef %11)
  %13 = icmp ne i32 %12, 0
  br i1 %13, label %14, label %15

14:                                               ; preds = %8
  store i32 -1, ptr %2, align 4
  br label %26

15:                                               ; preds = %8
  %16 = load ptr, ptr %3, align 8
  %17 = load ptr, ptr %3, align 8
  %18 = getelementptr inbounds %struct._phar_archive_data, ptr %17, i32 0, i32 0
  %19 = load ptr, ptr %18, align 8
  %20 = call ptr @_php_stream_open_wrapper_ex(ptr noundef %19, ptr noundef @.str, i32 noundef 18, ptr noundef null, ptr noundef null)
  call void @phar_set_pharfp(ptr noundef %16, ptr noundef %20)
  %21 = load ptr, ptr %3, align 8
  %22 = call ptr @phar_get_pharfp(ptr noundef %21)
  %23 = icmp ne ptr %22, null
  br i1 %23, label %25, label %24

24:                                               ; preds = %15
  store i32 -1, ptr %2, align 4
  br label %26

25:                                               ; preds = %15
  store i32 0, ptr %2, align 4
  br label %26

26:                                               ; preds = %25, %24, %14, %7
  %27 = load i32, ptr %2, align 4
  ret i32 %27
}

; Function Attrs: nounwind uwtable
define internal ptr @phar_get_entrypfp(ptr noundef %0) #0 {
  %2 = alloca ptr, align 8
  %3 = alloca ptr, align 8
  store ptr %0, ptr %3, align 8
  %4 = load ptr, ptr %3, align 8
  %5 = getelementptr inbounds %struct._phar_entry_info, ptr %4, i32 0, i32 22
  %6 = load i16, ptr %5, align 2
  %7 = lshr i16 %6, 8
  %8 = and i16 %7, 1
  %9 = zext i16 %8 to i32
  %10 = icmp ne i32 %9, 0
  br i1 %10, label %17, label %11

11:                                               ; preds = %1
  %12 = load ptr, ptr %3, align 8
  %13 = getelementptr inbounds %struct._phar_entry_info, ptr %12, i32 0, i32 17
  %14 = load ptr, ptr %13, align 8
  %15 = getelementptr inbounds %struct._phar_archive_data, ptr %14, i32 0, i32 15
  %16 = load ptr, ptr %15, align 8
  store ptr %16, ptr %2, align 8
  br label %28

17:                                               ; preds = %1
  %18 = load ptr, ptr getelementptr inbounds (%struct._zend_phar_globals, ptr @phar_globals, i32 0, i32 2), align 8
  %19 = load ptr, ptr %3, align 8
  %20 = getelementptr inbounds %struct._phar_entry_info, ptr %19, i32 0, i32 17
  %21 = load ptr, ptr %20, align 8
  %22 = getelementptr inbounds %struct._phar_archive_data, ptr %21, i32 0, i32 22
  %23 = load i32, ptr %22, align 8
  %24 = zext i32 %23 to i64
  %25 = getelementptr inbounds %struct._phar_entry_fp, ptr %18, i64 %24
  %26 = getelementptr inbounds %struct._phar_entry_fp, ptr %25, i32 0, i32 0
  %27 = load ptr, ptr %26, align 8
  store ptr %27, ptr %2, align 8
  br label %28

28:                                               ; preds = %17, %11
  %29 = load ptr, ptr %2, align 8
  ret ptr %29
}

; Function Attrs: nounwind uwtable
define internal i32 @phar_get_fp_type(ptr noundef %0) #0 {
  %2 = alloca i32, align 4
  %3 = alloca ptr, align 8
  store ptr %0, ptr %3, align 8
  %4 = load ptr, ptr %3, align 8
  %5 = getelementptr inbounds %struct._phar_entry_info, ptr %4, i32 0, i32 22
  %6 = load i16, ptr %5, align 2
  %7 = lshr i16 %6, 8
  %8 = and i16 %7, 1
  %9 = zext i16 %8 to i32
  %10 = icmp ne i32 %9, 0
  br i1 %10, label %15, label %11

11:                                               ; preds = %1
  %12 = load ptr, ptr %3, align 8
  %13 = getelementptr inbounds %struct._phar_entry_info, ptr %12, i32 0, i32 9
  %14 = load i32, ptr %13, align 8
  store i32 %14, ptr %2, align 4
  br label %33

15:                                               ; preds = %1
  %16 = load ptr, ptr getelementptr inbounds (%struct._zend_phar_globals, ptr @phar_globals, i32 0, i32 2), align 8
  %17 = load ptr, ptr %3, align 8
  %18 = getelementptr inbounds %struct._phar_entry_info, ptr %17, i32 0, i32 17
  %19 = load ptr, ptr %18, align 8
  %20 = getelementptr inbounds %struct._phar_archive_data, ptr %19, i32 0, i32 22
  %21 = load i32, ptr %20, align 8
  %22 = zext i32 %21 to i64
  %23 = getelementptr inbounds %struct._phar_entry_fp, ptr %16, i64 %22
  %24 = getelementptr inbounds %struct._phar_entry_fp, ptr %23, i32 0, i32 2
  %25 = load ptr, ptr %24, align 8
  %26 = load ptr, ptr %3, align 8
  %27 = getelementptr inbounds %struct._phar_entry_info, ptr %26, i32 0, i32 20
  %28 = load i32, ptr %27, align 4
  %29 = zext i32 %28 to i64
  %30 = getelementptr inbounds %struct._phar_entry_fp_info, ptr %25, i64 %29
  %31 = getelementptr inbounds %struct._phar_entry_fp_info, ptr %30, i32 0, i32 0
  %32 = load i32, ptr %31, align 8
  store i32 %32, ptr %2, align 4
  br label %33

33:                                               ; preds = %15, %11
  %34 = load i32, ptr %2, align 4
  ret i32 %34
}

; Function Attrs: nounwind uwtable
define hidden ptr @phar_get_efp(ptr noundef %0, i32 noundef %1) #0 {
  %3 = alloca ptr, align 8
  %4 = alloca ptr, align 8
  %5 = alloca i32, align 4
  %6 = alloca ptr, align 8
  store ptr %0, ptr %4, align 8
  store i32 %1, ptr %5, align 4
  %7 = load i32, ptr %5, align 4
  %8 = icmp ne i32 %7, 0
  br i1 %8, label %9, label %27

9:                                                ; preds = %2
  %10 = load ptr, ptr %4, align 8
  %11 = getelementptr inbounds %struct._phar_entry_info, ptr %10, i32 0, i32 18
  %12 = load ptr, ptr %11, align 8
  %13 = icmp ne ptr %12, null
  br i1 %13, label %14, label %27

14:                                               ; preds = %9
  %15 = load ptr, ptr %4, align 8
  %16 = call ptr @phar_get_link_source(ptr noundef %15)
  store ptr %16, ptr %6, align 8
  %17 = load ptr, ptr %6, align 8
  %18 = icmp ne ptr %17, null
  br i1 %18, label %19, label %26

19:                                               ; preds = %14
  %20 = load ptr, ptr %6, align 8
  %21 = load ptr, ptr %4, align 8
  %22 = icmp ne ptr %20, %21
  br i1 %22, label %23, label %26

23:                                               ; preds = %19
  %24 = load ptr, ptr %6, align 8
  %25 = call ptr @phar_get_efp(ptr noundef %24, i32 noundef 1)
  store ptr %25, ptr %3, align 8
  br label %75

26:                                               ; preds = %19, %14
  br label %27

27:                                               ; preds = %26, %9, %2
  %28 = load ptr, ptr %4, align 8
  %29 = call i32 @phar_get_fp_type(ptr noundef %28)
  %30 = icmp eq i32 %29, 0
  br i1 %30, label %31, label %43

31:                                               ; preds = %27
  %32 = load ptr, ptr %4, align 8
  %33 = call ptr @phar_get_entrypfp(ptr noundef %32)
  %34 = icmp ne ptr %33, null
  br i1 %34, label %40, label %35

35:                                               ; preds = %31
  %36 = load ptr, ptr %4, align 8
  %37 = getelementptr inbounds %struct._phar_entry_info, ptr %36, i32 0, i32 17
  %38 = load ptr, ptr %37, align 8
  %39 = call i32 @phar_open_archive_fp(ptr noundef %38)
  br label %40

40:                                               ; preds = %35, %31
  %41 = load ptr, ptr %4, align 8
  %42 = call ptr @phar_get_entrypfp(ptr noundef %41)
  store ptr %42, ptr %3, align 8
  br label %75

43:                                               ; preds = %27
  %44 = load ptr, ptr %4, align 8
  %45 = call i32 @phar_get_fp_type(ptr noundef %44)
  %46 = icmp eq i32 %45, 1
  br i1 %46, label %47, label %50

47:                                               ; preds = %43
  %48 = load ptr, ptr %4, align 8
  %49 = call ptr @phar_get_entrypufp(ptr noundef %48)
  store ptr %49, ptr %3, align 8
  br label %75

50:                                               ; preds = %43
  %51 = load ptr, ptr %4, align 8
  %52 = getelementptr inbounds %struct._phar_entry_info, ptr %51, i32 0, i32 9
  %53 = load i32, ptr %52, align 8
  %54 = icmp eq i32 %53, 2
  br i1 %54, label %55, label %59

55:                                               ; preds = %50
  %56 = load ptr, ptr %4, align 8
  %57 = getelementptr inbounds %struct._phar_entry_info, ptr %56, i32 0, i32 13
  %58 = load ptr, ptr %57, align 8
  store ptr %58, ptr %3, align 8
  br label %75

59:                                               ; preds = %50
  %60 = load ptr, ptr %4, align 8
  %61 = getelementptr inbounds %struct._phar_entry_info, ptr %60, i32 0, i32 13
  %62 = load ptr, ptr %61, align 8
  %63 = icmp ne ptr %62, null
  br i1 %63, label %71, label %64

64:                                               ; preds = %59
  %65 = load ptr, ptr %4, align 8
  %66 = getelementptr inbounds %struct._phar_entry_info, ptr %65, i32 0, i32 16
  %67 = load ptr, ptr %66, align 8
  %68 = call ptr @_php_stream_open_wrapper_ex(ptr noundef %67, ptr noundef @.str, i32 noundef 16, ptr noundef null, ptr noundef null)
  %69 = load ptr, ptr %4, align 8
  %70 = getelementptr inbounds %struct._phar_entry_info, ptr %69, i32 0, i32 13
  store ptr %68, ptr %70, align 8
  br label %71

71:                                               ; preds = %64, %59
  %72 = load ptr, ptr %4, align 8
  %73 = getelementptr inbounds %struct._phar_entry_info, ptr %72, i32 0, i32 13
  %74 = load ptr, ptr %73, align 8
  store ptr %74, ptr %3, align 8
  br label %75

75:                                               ; preds = %71, %55, %47, %40, %23
  %76 = load ptr, ptr %3, align 8
  ret ptr %76
}