; Function Attrs: nounwind uwtable
define hidden ptr @phar_get_efp(ptr noundef %0, i32 noundef %1) local_unnamed_addr #0 {
  %3 = icmp eq i32 %1, 0
  br label %tailrecurse

tailrecurse:                                      ; preds = %7, %2
  %.tr = phi ptr [ %0, %2 ], [ %8, %7 ]
  %.tr47 = phi i1 [ %3, %2 ], [ false, %7 ]
  br i1 %.tr47, label %9, label %4

4:                                                ; preds = %tailrecurse
  %5 = getelementptr inbounds i8, ptr %.tr, i64 136
  %6 = load ptr, ptr %5, align 8
  %.not20 = icmp eq ptr %6, null
  br i1 %.not20, label %9, label %7

7:                                                ; preds = %4
  %8 = tail call ptr @phar_get_link_source(ptr noundef nonnull %.tr)
  %.not21 = icmp eq ptr %8, null
  %.not22 = icmp eq ptr %8, %.tr
  %or.cond = or i1 %.not21, %.not22
  br i1 %or.cond, label %9, label %tailrecurse

9:                                                ; preds = %7, %4, %tailrecurse
  %10 = getelementptr inbounds i8, ptr %.tr, i64 154
  %11 = load i16, ptr %10, align 2
  %12 = and i16 %11, 256
  %.not.i = icmp eq i16 %12, 0
  br i1 %.not.i, label %phar_get_fp_type.exit, label %phar_get_fp_type.exit.thread

phar_get_fp_type.exit:                            ; preds = %9
  %13 = getelementptr inbounds i8, ptr %.tr, i64 64
  %.0.i = load i32, ptr %13, align 8
  switch i32 %.0.i, label %79 [
    i32 0, label %26
    i32 1, label %74
  ]

phar_get_fp_type.exit.thread:                     ; preds = %9
  %14 = load ptr, ptr getelementptr inbounds (%struct._zend_phar_globals, ptr @phar_globals, i64 0, i32 2), align 8
  %15 = getelementptr inbounds i8, ptr %.tr, i64 128
  %16 = load ptr, ptr %15, align 8
  %17 = getelementptr inbounds i8, ptr %16, i64 320
  %18 = load i32, ptr %17, align 8
  %19 = zext i32 %18 to i64
  %20 = getelementptr inbounds %struct._phar_entry_fp, ptr %14, i64 %19, i32 2
  %21 = load ptr, ptr %20, align 8
  %22 = getelementptr inbounds i8, ptr %.tr, i64 148
  %23 = load i32, ptr %22, align 4
  %24 = zext i32 %23 to i64
  %25 = getelementptr inbounds %struct._phar_entry_fp_info, ptr %21, i64 %24
  %.0.i42 = load i32, ptr %25, align 8
  switch i32 %.0.i42, label %phar_get_fp_type.exit37.thread._crit_edge [
    i32 0, label %.thread
    i32 1, label %.thread46
  ]

26:                                               ; preds = %phar_get_fp_type.exit
  %27 = getelementptr inbounds i8, ptr %.tr, i64 128
  %28 = load ptr, ptr %27, align 8
  %29 = getelementptr inbounds i8, ptr %28, i64 256
  br label %phar_get_entrypfp.exit

.thread:                                          ; preds = %phar_get_fp_type.exit.thread
  %30 = getelementptr inbounds %struct._phar_entry_fp, ptr %14, i64 %19
  br label %phar_get_entrypfp.exit

phar_get_entrypfp.exit:                           ; preds = %26, %.thread
  %31 = phi ptr [ %16, %.thread ], [ %28, %26 ]
  %.0.in.i26 = phi ptr [ %30, %.thread ], [ %29, %26 ]
  %.0.i27 = load ptr, ptr %.0.in.i26, align 8
  %.not24 = icmp eq ptr %.0.i27, null
  br i1 %.not24, label %32, label %phar_open_archive_fp.exit

32:                                               ; preds = %phar_get_entrypfp.exit
  %33 = getelementptr inbounds i8, ptr %31, i64 324
  %34 = load i16, ptr %33, align 4
  %35 = and i16 %34, 256
  %.not.i.i = icmp eq i16 %35, 0
  br i1 %.not.i.i, label %36, label %38

36:                                               ; preds = %32
  %37 = getelementptr inbounds i8, ptr %31, i64 256
  br label %phar_get_pharfp.exit.i

38:                                               ; preds = %32
  %39 = load ptr, ptr getelementptr inbounds (%struct._zend_phar_globals, ptr @phar_globals, i64 0, i32 2), align 8
  %40 = getelementptr inbounds i8, ptr %31, i64 320
  %41 = load i32, ptr %40, align 8
  %42 = zext i32 %41 to i64
  %43 = getelementptr inbounds %struct._phar_entry_fp, ptr %39, i64 %42
  br label %phar_get_pharfp.exit.i

phar_get_pharfp.exit.i:                           ; preds = %38, %36
  %.0.in.i.i = phi ptr [ %43, %38 ], [ %37, %36 ]
  %.0.i.i = load ptr, ptr %.0.in.i.i, align 8
  %.not.i28 = icmp eq ptr %.0.i.i, null
  br i1 %.not.i28, label %44, label %phar_open_archive_fp.exit

44:                                               ; preds = %phar_get_pharfp.exit.i
  %45 = load ptr, ptr %31, align 8
  %46 = tail call i32 @php_check_open_basedir(ptr noundef %45) #15
  %.not5.i = icmp eq i32 %46, 0
  br i1 %.not5.i, label %47, label %phar_open_archive_fp.exit

47:                                               ; preds = %44
  %48 = load ptr, ptr %31, align 8
  %49 = tail call ptr @_php_stream_open_wrapper_ex(ptr noundef %48, ptr noundef nonnull @.str, i32 noundef 18, ptr noundef null, ptr noundef null) #15
  %50 = load i16, ptr %33, align 4
  %51 = and i16 %50, 256
  %.not.i7.i = icmp eq i16 %51, 0
  br i1 %.not.i7.i, label %52, label %54

52:                                               ; preds = %47
  %53 = getelementptr inbounds i8, ptr %31, i64 256
  br label %phar_set_pharfp.exit.i

54:                                               ; preds = %47
  %55 = load ptr, ptr getelementptr inbounds (%struct._zend_phar_globals, ptr @phar_globals, i64 0, i32 2), align 8
  %56 = getelementptr inbounds i8, ptr %31, i64 320
  %57 = load i32, ptr %56, align 8
  %58 = zext i32 %57 to i64
  %59 = getelementptr inbounds %struct._phar_entry_fp, ptr %55, i64 %58
  br label %phar_set_pharfp.exit.i

phar_set_pharfp.exit.i:                           ; preds = %54, %52
  %.sink.i.i = phi ptr [ %59, %54 ], [ %53, %52 ]
  store ptr %49, ptr %.sink.i.i, align 8
  br label %phar_open_archive_fp.exit

phar_open_archive_fp.exit:                        ; preds = %phar_set_pharfp.exit.i, %44, %phar_get_pharfp.exit.i, %phar_get_entrypfp.exit
  %60 = load i16, ptr %10, align 2
  %61 = and i16 %60, 256
  %.not.i30 = icmp eq i16 %61, 0
  br i1 %.not.i30, label %62, label %66

62:                                               ; preds = %phar_open_archive_fp.exit
  %63 = getelementptr inbounds i8, ptr %.tr, i64 128
  %64 = load ptr, ptr %63, align 8
  %65 = getelementptr inbounds i8, ptr %64, i64 256
  br label %phar_get_entrypfp.exit33

66:                                               ; preds = %phar_open_archive_fp.exit
  %67 = load ptr, ptr getelementptr inbounds (%struct._zend_phar_globals, ptr @phar_globals, i64 0, i32 2), align 8
  %68 = getelementptr inbounds i8, ptr %.tr, i64 128
  %69 = load ptr, ptr %68, align 8
  %70 = getelementptr inbounds i8, ptr %69, i64 320
  %71 = load i32, ptr %70, align 8
  %72 = zext i32 %71 to i64
  %73 = getelementptr inbounds %struct._phar_entry_fp, ptr %67, i64 %72
  br label %phar_get_entrypfp.exit33

phar_get_fp_type.exit37.thread._crit_edge:        ; preds = %phar_get_fp_type.exit.thread
  %.phi.trans.insert = getelementptr inbounds i8, ptr %.tr, i64 64
  %.pre = load i32, ptr %.phi.trans.insert, align 8
  br label %79

74:                                               ; preds = %phar_get_fp_type.exit
  %75 = getelementptr inbounds i8, ptr %.tr, i64 128
  %76 = load ptr, ptr %75, align 8
  %77 = getelementptr inbounds i8, ptr %76, i64 264
  br label %phar_get_entrypfp.exit33

.thread46:                                        ; preds = %phar_get_fp_type.exit.thread
  %78 = getelementptr inbounds %struct._phar_entry_fp, ptr %14, i64 %19, i32 1
  br label %phar_get_entrypfp.exit33

79:                                               ; preds = %phar_get_fp_type.exit37.thread._crit_edge, %phar_get_fp_type.exit
  %80 = phi i32 [ %.pre, %phar_get_fp_type.exit37.thread._crit_edge ], [ %.0.i, %phar_get_fp_type.exit ]
  %81 = icmp eq i32 %80, 2
  %82 = getelementptr inbounds i8, ptr %.tr, i64 96
  br i1 %81, label %phar_get_entrypfp.exit33, label %83

83:                                               ; preds = %79
  %84 = load ptr, ptr %82, align 8
  %.not23 = icmp eq ptr %84, null
  br i1 %.not23, label %85, label %phar_get_entrypfp.exit33

85:                                               ; preds = %83
  %86 = getelementptr inbounds i8, ptr %.tr, i64 120
  %87 = load ptr, ptr %86, align 8
  %88 = tail call ptr @_php_stream_open_wrapper_ex(ptr noundef %87, ptr noundef nonnull @.str, i32 noundef 16, ptr noundef null, ptr noundef null) #15
  store ptr %88, ptr %82, align 8
  br label %phar_get_entrypfp.exit33

phar_get_entrypfp.exit33:                         ; preds = %79, %83, %85, %.thread46, %74, %66, %62
  %.0.in = phi ptr [ %73, %66 ], [ %65, %62 ], [ %78, %.thread46 ], [ %77, %74 ], [ %82, %85 ], [ %82, %83 ], [ %82, %79 ]
  %.0 = load ptr, ptr %.0.in, align 8
  ret ptr %.0
}